; Function Attrs: nounwind uwtable
define internal void @_jobcomp_info_destroy(ptr noundef %0) #0 {
  %2 = alloca ptr, align 8
  call void @llvm.lifetime.start.p0(i64 8, ptr nonnull %2) #10
  store ptr %0, ptr %2, align 8
  %3 = icmp eq ptr %0, null
  br i1 %3, label %20, label %4

4:                                                ; preds = %1
  %5 = getelementptr inbounds nuw i8, ptr %0, i64 160
  tail call void @slurm_xfree(ptr noundef nonnull %5) #10
  %6 = getelementptr inbounds nuw i8, ptr %0, i64 88
  tail call void @slurm_xfree(ptr noundef nonnull %6) #10
  %7 = getelementptr inbounds nuw i8, ptr %0, i64 104
  tail call void @slurm_xfree(ptr noundef nonnull %7) #10
  %8 = getelementptr inbounds nuw i8, ptr %0, i64 152
  tail call void @slurm_xfree(ptr noundef nonnull %8) #10
  %9 = getelementptr inbounds nuw i8, ptr %0, i64 128
  tail call void @slurm_xfree(ptr noundef nonnull %9) #10
  %10 = getelementptr inbounds nuw i8, ptr %0, i64 120
  tail call void @slurm_xfree(ptr noundef nonnull %10) #10
  %11 = getelementptr inbounds nuw i8, ptr %0, i64 112
  tail call void @slurm_xfree(ptr noundef nonnull %11) #10
  %12 = getelementptr inbounds nuw i8, ptr %0, i64 136
  tail call void @slurm_xfree(ptr noundef nonnull %12) #10
  %13 = getelementptr inbounds nuw i8, ptr %0, i64 144
  tail call void @slurm_xfree(ptr noundef nonnull %13) #10
  %14 = getelementptr inbounds nuw i8, ptr %0, i64 184
  tail call void @slurm_xfree(ptr noundef nonnull %14) #10
  %15 = getelementptr inbounds nuw i8, ptr %0, i64 200
  tail call void @slurm_xfree(ptr noundef nonnull %15) #10
  %16 = getelementptr inbounds nuw i8, ptr %0, i64 208
  tail call void @slurm_xfree(ptr noundef nonnull %16) #10
  %17 = getelementptr inbounds nuw i8, ptr %0, i64 216
  tail call void @slurm_xfree(ptr noundef nonnull %17) #10
  %18 = getelementptr inbounds nuw i8, ptr %0, i64 176
  tail call void @slurm_xfree(ptr noundef nonnull %18) #10
  %19 = getelementptr inbounds nuw i8, ptr %0, i64 168
  tail call void @slurm_xfree(ptr noundef nonnull %19) #10
  call void @slurm_xfree(ptr noundef nonnull %2) #10
  br label %20

20:                                               ; preds = %1, %4
  call void @llvm.lifetime.end.p0(i64 8, ptr nonnull %2) #10
  ret void
}